target datalayout = "e-m:e-p270:32:32-p271:32:32-p272:64:64-i64:64-i128:128-f80:128-n8:16:32:64-S128"
target triple = "x86_64-pc-linux-gnu"

; Function Attrs: nounwind uwtable
define internal void @SDL_Convert51ToQuad(ptr noundef %0, ptr noundef %1, i32 noundef %2) #0 {
  %4 = alloca ptr, align 8
  %5 = alloca ptr, align 8
  %6 = alloca i32, align 4
  %7 = alloca i32, align 4
  %8 = alloca float, align 4
  %9 = alloca float, align 4
  store ptr %0, ptr %4, align 8
  store ptr %1, ptr %5, align 8
  store i32 %2, ptr %6, align 4
  call void @llvm.lifetime.start.p0(i64 4, ptr %7) #7
  %10 = load i32, ptr %6, align 4
  store i32 %10, ptr %7, align 4
  br label %11

11:                                               ; preds = %57, %3
  %12 = load i32, ptr %7, align 4
  %13 = icmp ne i32 %12, 0
  br i1 %13, label %14, label %64

14:                                               ; preds = %11
  call void @llvm.lifetime.start.p0(i64 4, ptr %8) #7
  %15 = load ptr, ptr %5, align 8
  %16 = getelementptr inbounds float, ptr %15, i64 2
  %17 = load float, ptr %16, align 4
  store float %17, ptr %8, align 4
  call void @llvm.lifetime.start.p0(i64 4, ptr %9) #7
  %18 = load ptr, ptr %5, align 8
  %19 = getelementptr inbounds float, ptr %18, i64 3
  %20 = load float, ptr %19, align 4
  store float %20, ptr %9, align 4
  %21 = load ptr, ptr %5, align 8
  %22 = getelementptr inbounds float, ptr %21, i64 0
  %23 = load float, ptr %22, align 4
  %24 = load float, ptr %8, align 4
  %25 = fmul float %24, 0x3FD93BFA20000000
  %26 = call float @llvm.fmuladd.f32(float %23, float 0x3FE1DBEAA0000000, float %25)
  %27 = load float, ptr %9, align 4
  %28 = call float @llvm.fmuladd.f32(float %27, float 0x3FA8618620000000, float %26)
  %29 = load ptr, ptr %4, align 8
  %30 = getelementptr inbounds float, ptr %29, i64 0
  store float %28, ptr %30, align 4
  %31 = load ptr, ptr %5, align 8
  %32 = getelementptr inbounds float, ptr %31, i64 1
  %33 = load float, ptr %32, align 4
  %34 = load float, ptr %8, align 4
  %35 = fmul float %34, 0x3FD93BFA20000000
  %36 = call float @llvm.fmuladd.f32(float %33, float 0x3FE1DBEAA0000000, float %35)
  %37 = load float, ptr %9, align 4
  %38 = call float @llvm.fmuladd.f32(float %37, float 0x3FA8618620000000, float %36)
  %39 = load ptr, ptr %4, align 8
  %40 = getelementptr inbounds float, ptr %39, i64 1
  store float %38, ptr %40, align 4
  %41 = load float, ptr %9, align 4
  %42 = load ptr, ptr %5, align 8
  %43 = getelementptr inbounds float, ptr %42, i64 4
  %44 = load float, ptr %43, align 4
  %45 = fmul float %44, 0x3FE1DBEAA0000000
  %46 = call float @llvm.fmuladd.f32(float %41, float 0x3FA8618620000000, float %45)
  %47 = load ptr, ptr %4, align 8
  %48 = getelementptr inbounds float, ptr %47, i64 2
  store float %46, ptr %48, align 4
  %49 = load float, ptr %9, align 4
  %50 = load ptr, ptr %5, align 8
  %51 = getelementptr inbounds float, ptr %50, i64 5
  %52 = load float, ptr %51, align 4
  %53 = fmul float %52, 0x3FE1DBEAA0000000
  %54 = call float @llvm.fmuladd.f32(float %49, float 0x3FA8618620000000, float %53)
  %55 = load ptr, ptr %4, align 8
  %56 = getelementptr inbounds float, ptr %55, i64 3
  store float %54, ptr %56, align 4
  call void @llvm.lifetime.end.p0(i64 4, ptr %9) #7
  call void @llvm.lifetime.end.p0(i64 4, ptr %8) #7
  br label %57

57:                                               ; preds = %14
  %58 = load i32, ptr %7, align 4
  %59 = add nsw i32 %58, -1
  store i32 %59, ptr %7, align 4
  %60 = load ptr, ptr %5, align 8
  %61 = getelementptr inbounds float, ptr %60, i64 6
  store ptr %61, ptr %5, align 8
  %62 = load ptr, ptr %4, align 8
  %63 = getelementptr inbounds float, ptr %62, i64 4
  store ptr %63, ptr %4, align 8
  br label %11, !llvm.loop !82

64:                                               ; preds = %11
  call void @llvm.lifetime.end.p0(i64 4, ptr %7) #7
  ret void
}