; Function Attrs: nofree norecurse nosync nounwind memory(argmem: readwrite) uwtable
define internal void @SDL_Convert51ToQuad(ptr noundef writeonly captures(none) %0, ptr noundef readonly captures(none) %1, i32 noundef %2) #5 {
  %.not22 = icmp eq i32 %2, 0
  br i1 %.not22, label %._crit_edge, label %.lr.ph

.lr.ph:                                           ; preds = %3, %.lr.ph
  %.025 = phi ptr [ %29, %.lr.ph ], [ %0, %3 ]
  %.02024 = phi ptr [ %28, %.lr.ph ], [ %1, %3 ]
  %.02123 = phi i32 [ %27, %.lr.ph ], [ %2, %3 ]
  %4 = getelementptr inbounds nuw i8, ptr %.02024, i64 8
  %5 = load float, ptr %4, align 4
  %6 = getelementptr inbounds nuw i8, ptr %.02024, i64 12
  %7 = load float, ptr %6, align 4
  %8 = load float, ptr %.02024, align 4
  %9 = fmul float %5, 0x3FD93BFA20000000
  %10 = tail call float @llvm.fmuladd.f32(float %8, float 0x3FE1DBEAA0000000, float %9)
  %11 = tail call float @llvm.fmuladd.f32(float %7, float 0x3FA8618620000000, float %10)
  store float %11, ptr %.025, align 4
  %12 = getelementptr inbounds nuw i8, ptr %.02024, i64 4
  %13 = load float, ptr %12, align 4
  %14 = tail call float @llvm.fmuladd.f32(float %13, float 0x3FE1DBEAA0000000, float %9)
  %15 = tail call float @llvm.fmuladd.f32(float %7, float 0x3FA8618620000000, float %14)
  %16 = getelementptr inbounds nuw i8, ptr %.025, i64 4
  store float %15, ptr %16, align 4
  %17 = getelementptr inbounds nuw i8, ptr %.02024, i64 16
  %18 = load float, ptr %17, align 4
  %19 = fmul float %18, 0x3FE1DBEAA0000000
  %20 = tail call float @llvm.fmuladd.f32(float %7, float 0x3FA8618620000000, float %19)
  %21 = getelementptr inbounds nuw i8, ptr %.025, i64 8
  store float %20, ptr %21, align 4
  %22 = getelementptr inbounds nuw i8, ptr %.02024, i64 20
  %23 = load float, ptr %22, align 4
  %24 = fmul float %23, 0x3FE1DBEAA0000000
  %25 = tail call float @llvm.fmuladd.f32(float %7, float 0x3FA8618620000000, float %24)
  %26 = getelementptr inbounds nuw i8, ptr %.025, i64 12
  store float %25, ptr %26, align 4
  %27 = add nsw i32 %.02123, -1
  %28 = getelementptr inbounds nuw i8, ptr %.02024, i64 24
  %29 = getelementptr inbounds nuw i8, ptr %.025, i64 16
  %.not = icmp eq i32 %27, 0
  br i1 %.not, label %._crit_edge, label %.lr.ph, !llvm.loop !88

._crit_edge:                                      ; preds = %.lr.ph, %3
  ret void
}